ccopy_reg
_reconstructor
p0
(csklearn.preprocessing.label
LabelEncoder
p1
c__builtin__
object
p2
Ntp3
Rp4
(dp5
S'classes_'
p6
cnumpy.core.multiarray
_reconstruct
p7
(cnumpy
ndarray
p8
(I0
tp9
S'b'
p10
tp11
Rp12
(I1
(I5
tp13
cnumpy
dtype
p14
(S'S12'
p15
I0
I1
tp16
Rp17
(I3
S'|'
p18
NNNI12
I1
I0
tp19
bI00
S'SITTING\x00\x00\x00\x00\x00WALKING\x00\x00\x00\x00\x00WALKING_DOWNWALKING_UP\x00\x00Z\x00\x00\x00\x00\x00\x00\x00\x00\x00\x00\x00'
p20
tp21
bsb.